; Function Attrs: mustprogress uwtable
define void @_ZNK6icu_776number17CurrencyPrecision12withCurrencyERKNS_12CurrencyUnitE(ptr dead_on_unwind noalias writable writeonly sret(%"class.icu_77::number::Precision") align 8 captures(none) initializes((0, 4), (8, 12), (24, 28)) %0, ptr noundef nonnull readonly align 8 captures(none) dereferenceable(28) %1, ptr noundef nonnull align 8 dereferenceable(28) %2) local_unnamed_addr #1 align 2 {
  %4 = alloca i32, align 4
  %5 = alloca %"class.icu_77::number::Precision", align 8
  call void @llvm.lifetime.start.p0(i64 4, ptr nonnull %4) #22
  store i32 0, ptr %4, align 4, !tbaa !13
  call void @llvm.lifetime.start.p0(i64 32, ptr nonnull %5) #22
  tail call void @llvm.experimental.noalias.scope.decl(metadata !74)
  %6 = load i32, ptr %1, align 8, !tbaa !27, !noalias !74
  %7 = icmp eq i32 %6, 9
  br i1 %7, label %_ZNK6icu_776number9Precision12withCurrencyERKNS_12CurrencyUnitER10UErrorCode.exit.thread, label %8

_ZNK6icu_776number9Precision12withCurrencyERKNS_12CurrencyUnitER10UErrorCode.exit.thread: ; preds = %3
  call void @llvm.memcpy.p0.p0.i64(ptr noundef nonnull align 8 dereferenceable(32) %5, ptr noundef nonnull readonly align 8 dereferenceable(32) %1, i64 32, i1 false)
  br label %27

8:                                                ; preds = %3
  %9 = getelementptr inbounds nuw i8, ptr %2, i64 20
  %10 = getelementptr inbounds nuw i8, ptr %1, i64 8
  %11 = load i32, ptr %10, align 8, !tbaa !17, !noalias !74
  %12 = call double @ucurr_getRoundingIncrementForUsage_77(ptr noundef nonnull %9, i32 noundef %11, ptr noundef nonnull align 4 dereferenceable(4) %4), !noalias !74
  %13 = load i32, ptr %10, align 8, !tbaa !17, !noalias !74
  %14 = call i32 @ucurr_getDefaultFractionDigitsForUsage_77(ptr noundef nonnull %9, i32 noundef %13, ptr noundef nonnull align 4 dereferenceable(4) %4), !noalias !74
  %15 = fcmp une double %12, 0.000000e+00
  br i1 %15, label %16, label %_ZN6icu_776number9Precision13fixedFractionEi.exit.i

16:                                               ; preds = %8
  call void @_ZN6icu_776number9Precision9incrementEd(ptr dead_on_unwind nonnull writable sret(%"class.icu_77::number::IncrementPrecision") align 8 %5, double noundef %12)
  br label %_ZNK6icu_776number9Precision12withCurrencyERKNS_12CurrencyUnitER10UErrorCode.exit

_ZN6icu_776number9Precision13fixedFractionEi.exit.i: ; preds = %8
  %or.cond.i.i = icmp ult i32 %14, 1000
  %.sink.i.i = select i1 %or.cond.i.i, i32 2, i32 9
  store i32 %.sink.i.i, ptr %5, align 8, !alias.scope !74
  %.sroa.48.0..sroa_idx.i = getelementptr inbounds nuw i8, ptr %5, i64 8
  %17 = shl i32 %14, 16
  %18 = and i32 %14, 65535
  %19 = or disjoint i32 %17, %18
  %.sroa.48.sroa.0.0.insert.insert.i = select i1 %or.cond.i.i, i32 %19, i32 65810
  store i32 %.sroa.48.sroa.0.0.insert.insert.i, ptr %.sroa.48.0..sroa_idx.i, align 8, !alias.scope !74
  %.sroa.7.0..sroa_idx.i = getelementptr inbounds nuw i8, ptr %5, i64 12
  store i16 -1, ptr %.sroa.7.0..sroa_idx.i, align 4, !alias.scope !74
  %.sroa.8.0..sroa_idx.i = getelementptr inbounds nuw i8, ptr %5, i64 14
  store i16 -1, ptr %.sroa.8.0..sroa_idx.i, align 2, !alias.scope !74
  %.sroa.9.0..sroa_idx.i = getelementptr inbounds nuw i8, ptr %5, i64 16
  store i64 0, ptr %.sroa.9.0..sroa_idx.i, align 8, !alias.scope !74
  br label %_ZNK6icu_776number9Precision12withCurrencyERKNS_12CurrencyUnitER10UErrorCode.exit

_ZNK6icu_776number9Precision12withCurrencyERKNS_12CurrencyUnitER10UErrorCode.exit: ; preds = %16, %_ZN6icu_776number9Precision13fixedFractionEi.exit.i
  %20 = getelementptr inbounds nuw i8, ptr %1, i64 24
  %21 = load i32, ptr %20, align 8, !tbaa !31, !noalias !74
  %22 = getelementptr inbounds nuw i8, ptr %5, i64 24
  store i32 %21, ptr %22, align 8, !tbaa !31, !alias.scope !74
  %.pre = load i32, ptr %4, align 4, !tbaa !13
  %23 = icmp slt i32 %.pre, 1
  br i1 %23, label %27, label %24

24:                                               ; preds = %_ZNK6icu_776number9Precision12withCurrencyERKNS_12CurrencyUnitER10UErrorCode.exit
  store i32 9, ptr %0, align 8, !tbaa !27
  %25 = getelementptr inbounds nuw i8, ptr %0, i64 24
  store i32 0, ptr %25, align 8, !tbaa !31
  %26 = getelementptr inbounds nuw i8, ptr %0, i64 8
  store i32 %.pre, ptr %26, align 8, !tbaa !17
  br label %28

27:                                               ; preds = %_ZNK6icu_776number9Precision12withCurrencyERKNS_12CurrencyUnitER10UErrorCode.exit.thread, %_ZNK6icu_776number9Precision12withCurrencyERKNS_12CurrencyUnitER10UErrorCode.exit
  call void @llvm.memcpy.p0.p0.i64(ptr noundef nonnull align 8 dereferenceable(32) %0, ptr noundef nonnull align 8 dereferenceable(32) %5, i64 32, i1 false)
  br label %28

28:                                               ; preds = %27, %24
  call void @llvm.lifetime.end.p0(i64 32, ptr nonnull %5) #22
  call void @llvm.lifetime.end.p0(i64 4, ptr nonnull %4) #22
  ret void
}